; Function Attrs: mustprogress uwtable
define dso_local noundef nonnull align 8 dereferenceable(8) ptr @_ZNK14V3OptionParser12AppendHelperclEPKcNS0_7CbOnOffESt8functionIFvbEE(ptr nocapture noundef nonnull readonly align 8 dereferenceable(8) %0, ptr noundef %1, ptr noundef %2) #3 align 2 personality ptr @__gxx_personality_v0 {
  %4 = alloca %"class.std::__cxx11::basic_string", align 8
  %5 = alloca %"class.std::allocator.5", align 1
  %6 = alloca %"class.std::function.16", align 8
  %7 = load ptr, ptr %0, align 8
  call void @_ZNSaIcEC1Ev(ptr noundef nonnull align 1 dereferenceable(1) %5) #17
  %8 = invoke noundef ptr @_ZNSt7__cxx1112basic_stringIcSt11char_traitsIcESaIcEE13_M_local_dataEv(ptr noundef nonnull align 8 dereferenceable(32) %4)
          to label %.noexc unwind label %40

.noexc:                                           ; preds = %3
  invoke void @_ZNSt7__cxx1112basic_stringIcSt11char_traitsIcESaIcEE12_Alloc_hiderC1EPcRKS3_(ptr noundef nonnull align 8 dereferenceable(8) %4, ptr noundef %8, ptr noundef nonnull align 1 dereferenceable(1) %5)
          to label %.noexc7 unwind label %40

.noexc7:                                          ; preds = %.noexc
  %9 = icmp eq ptr %1, null
  br i1 %9, label %10, label %14

10:                                               ; preds = %.noexc7
  invoke void @_ZSt19__throw_logic_errorPKc(ptr noundef nonnull @.str.12) #18
          to label %11 unwind label %12

11:                                               ; preds = %10
  unreachable

12:                                               ; preds = %14, %10
  %13 = landingpad { ptr, i32 }
          cleanup
  call void @_ZNSaIcED2Ev(ptr noundef nonnull align 1 dereferenceable(1) %4) #17
  br label %.body

14:                                               ; preds = %.noexc7
  %15 = call noundef i64 @strlen(ptr noundef nonnull dereferenceable(1) %1) #17
  %16 = getelementptr inbounds i8, ptr %1, i64 %15
  invoke void @_ZNSt7__cxx1112basic_stringIcSt11char_traitsIcESaIcEE12_M_constructIPKcEEvT_S8_St20forward_iterator_tag(ptr noundef nonnull align 8 dereferenceable(32) %4, ptr noundef nonnull %1, ptr noundef nonnull %16)
          to label %_ZNSt7__cxx1112basic_stringIcSt11char_traitsIcESaIcEEC2IS3_EEPKcRKS3_.exit unwind label %12

_ZNSt7__cxx1112basic_stringIcSt11char_traitsIcESaIcEEC2IS3_EEPKcRKS3_.exit: ; preds = %14
  %17 = getelementptr inbounds i8, ptr %6, i64 16
  %18 = getelementptr inbounds i8, ptr %2, i64 16
  call void @llvm.memset.p0.i64(ptr noundef nonnull align 8 dereferenceable(32) %6, i8 0, i64 32, i1 false)
  %19 = load ptr, ptr %18, align 8
  %.not.i.i.not.i = icmp eq ptr %19, null
  br i1 %.not.i.i.not.i, label %_ZNSt8functionIFvbEEC2ERKS1_.exit, label %20

20:                                               ; preds = %_ZNSt7__cxx1112basic_stringIcSt11char_traitsIcESaIcEEC2IS3_EEPKcRKS3_.exit
  %21 = invoke noundef zeroext i1 %19(ptr noundef nonnull align 8 dereferenceable(16) %6, ptr noundef nonnull align 8 dereferenceable(16) %2, i32 noundef 2)
          to label %22 unwind label %24

22:                                               ; preds = %20
  %23 = load <2 x ptr>, ptr %18, align 8
  store <2 x ptr> %23, ptr %17, align 8
  br label %_ZNSt8functionIFvbEEC2ERKS1_.exit

24:                                               ; preds = %20
  %25 = landingpad { ptr, i32 }
          cleanup
  %26 = load ptr, ptr %17, align 8
  %.not.i.i = icmp eq ptr %26, null
  br i1 %.not.i.i, label %.body8, label %27

27:                                               ; preds = %24
  %28 = invoke noundef zeroext i1 %26(ptr noundef nonnull align 8 dereferenceable(16) %6, ptr noundef nonnull align 8 dereferenceable(16) %6, i32 noundef 3)
          to label %.body8 unwind label %29

29:                                               ; preds = %27
  %30 = landingpad { ptr, i32 }
          catch ptr null
  %31 = extractvalue { ptr, i32 } %30, 0
  call void @__clang_call_terminate(ptr %31) #19
  unreachable

_ZNSt8functionIFvbEEC2ERKS1_.exit:                ; preds = %22, %_ZNSt7__cxx1112basic_stringIcSt11char_traitsIcESaIcEEC2IS3_EEPKcRKS3_.exit
  %32 = invoke noundef nonnull align 8 dereferenceable(8) ptr @_ZN14V3OptionParser3addINS_4Impl13ActionCbOnOffESt8functionIFvbEEEERNS_9ActionIfsERKNSt7__cxx1112basic_stringIcSt11char_traitsIcESaIcEEET0_(ptr noundef nonnull align 8 dereferenceable(8) %7, ptr noundef nonnull align 8 dereferenceable(32) %4, ptr noundef nonnull %6)
          to label %33 unwind label %42

33:                                               ; preds = %_ZNSt8functionIFvbEEC2ERKS1_.exit
  %34 = load ptr, ptr %17, align 8
  %.not.i.i10 = icmp eq ptr %34, null
  br i1 %.not.i.i10, label %_ZNSt8functionIFvbEED2Ev.exit, label %35

35:                                               ; preds = %33
  %36 = invoke noundef zeroext i1 %34(ptr noundef nonnull align 8 dereferenceable(16) %6, ptr noundef nonnull align 8 dereferenceable(16) %6, i32 noundef 3)
          to label %_ZNSt8functionIFvbEED2Ev.exit unwind label %37

37:                                               ; preds = %35
  %38 = landingpad { ptr, i32 }
          catch ptr null
  %39 = extractvalue { ptr, i32 } %38, 0
  call void @__clang_call_terminate(ptr %39) #19
  unreachable

_ZNSt8functionIFvbEED2Ev.exit:                    ; preds = %33, %35
  call void @_ZNSt7__cxx1112basic_stringIcSt11char_traitsIcESaIcEED1Ev(ptr noundef nonnull align 8 dereferenceable(32) %4) #17
  call void @_ZNSaIcED1Ev(ptr noundef nonnull align 1 dereferenceable(1) %5) #17
  ret ptr %32

40:                                               ; preds = %.noexc, %3
  %41 = landingpad { ptr, i32 }
          cleanup
  br label %.body

42:                                               ; preds = %_ZNSt8functionIFvbEEC2ERKS1_.exit
  %43 = landingpad { ptr, i32 }
          cleanup
  %44 = load ptr, ptr %17, align 8
  %.not.i.i12 = icmp eq ptr %44, null
  br i1 %.not.i.i12, label %.body8, label %45

45:                                               ; preds = %42
  %46 = invoke noundef zeroext i1 %44(ptr noundef nonnull align 8 dereferenceable(16) %6, ptr noundef nonnull align 8 dereferenceable(16) %6, i32 noundef 3)
          to label %.body8 unwind label %47

47:                                               ; preds = %45
  %48 = landingpad { ptr, i32 }
          catch ptr null
  %49 = extractvalue { ptr, i32 } %48, 0
  call void @__clang_call_terminate(ptr %49) #19
  unreachable

.body8:                                           ; preds = %45, %42, %27, %24
  %.pn = phi { ptr, i32 } [ %25, %27 ], [ %25, %24 ], [ %43, %42 ], [ %43, %45 ]
  call void @_ZNSt7__cxx1112basic_stringIcSt11char_traitsIcESaIcEED1Ev(ptr noundef nonnull align 8 dereferenceable(32) %4) #17
  br label %.body

.body:                                            ; preds = %40, %12, %.body8
  %.pn.pn = phi { ptr, i32 } [ %.pn, %.body8 ], [ %41, %40 ], [ %13, %12 ]
  call void @_ZNSaIcED1Ev(ptr noundef nonnull align 1 dereferenceable(1) %5) #17
  resume { ptr, i32 } %.pn.pn
}